; Function Attrs: nounwind uwtable
define internal fastcc range(i32 -12, 1) i32 @ensure_playlist(ptr noundef %0, ptr noundef nonnull captures(none) %1, ptr noundef %2) unnamed_addr #0 {
  %4 = load ptr, ptr %1, align 8, !tbaa !47
  %.not = icmp eq ptr %4, null
  br i1 %.not, label %5, label %new_variant.exit.thread

5:                                                ; preds = %3
  %6 = tail call fastcc ptr @new_playlist(ptr noundef %0, ptr noundef %2, ptr noundef null)
  %.not.i = icmp eq ptr %6, null
  br i1 %.not.i, label %new_variant.exit.thread, label %7

7:                                                ; preds = %5
  %8 = tail call noalias ptr @av_mallocz(i64 noundef 208) #16
  %.not29.i = icmp eq ptr %8, null
  br i1 %.not29.i, label %new_variant.exit.thread, label %9

9:                                                ; preds = %7
  %10 = getelementptr inbounds nuw i8, ptr %0, i64 24
  %11 = getelementptr inbounds nuw i8, ptr %0, i64 16
  tail call void @av_dynarray_add(ptr noundef nonnull %10, ptr noundef nonnull %11, ptr noundef nonnull %8) #16
  %12 = getelementptr inbounds nuw i8, ptr %8, i64 8
  %13 = getelementptr inbounds nuw i8, ptr %8, i64 4
  tail call void @av_dynarray_add(ptr noundef nonnull %12, ptr noundef nonnull %13, ptr noundef nonnull %6) #16
  %14 = getelementptr inbounds nuw i8, ptr %0, i64 40
  %15 = load ptr, ptr %14, align 8, !tbaa !46
  %16 = getelementptr inbounds nuw i8, ptr %0, i64 32
  %17 = load i32, ptr %16, align 8, !tbaa !45
  %18 = sext i32 %17 to i64
  %19 = getelementptr ptr, ptr %15, i64 %18
  %20 = getelementptr i8, ptr %19, i64 -8
  %21 = load ptr, ptr %20, align 8, !tbaa !47
  store ptr %21, ptr %1, align 8, !tbaa !47
  br label %new_variant.exit.thread

new_variant.exit.thread:                          ; preds = %7, %5, %3, %9
  %.0 = phi i32 [ 0, %9 ], [ 0, %3 ], [ -12, %5 ], [ -12, %7 ]
  ret i32 %.0
}